
user/_forktest:     file format elf64-littleriscv


Disassembly of section .text:

0000000000000000 <print>:

#define N  1000

void
print(const char *s)
{
   0:	1101                	addi	sp,sp,-32
   2:	ec06                	sd	ra,24(sp)
   4:	e822                	sd	s0,16(sp)
   6:	e426                	sd	s1,8(sp)
   8:	1000                	addi	s0,sp,32
   a:	84aa                	mv	s1,a0
  write(1, s, strlen(s));
   c:	00000097          	auipc	ra,0x0
  10:	15a080e7          	jalr	346(ra) # 166 <strlen>
  14:	0005061b          	sext.w	a2,a0
  18:	85a6                	mv	a1,s1
  1a:	4505                	li	a0,1
  1c:	00000097          	auipc	ra,0x0
  20:	398080e7          	jalr	920(ra) # 3b4 <write>
}
  24:	60e2                	ld	ra,24(sp)
  26:	6442                	ld	s0,16(sp)
  28:	64a2                	ld	s1,8(sp)
  2a:	6105                	addi	sp,sp,32
  2c:	8082                	ret

000000000000002e <forktest>:

void
forktest(void)
{
  2e:	1101                	addi	sp,sp,-32
  30:	ec06                	sd	ra,24(sp)
  32:	e822                	sd	s0,16(sp)
  34:	e426                	sd	s1,8(sp)
  36:	e04a                	sd	s2,0(sp)
  38:	1000                	addi	s0,sp,32
  int n, pid;

  print("fork test\n");
  3a:	00000517          	auipc	a0,0x0
  3e:	57650513          	addi	a0,a0,1398 # 5b0 <malloc+0xe4>
  42:	00000097          	auipc	ra,0x0
  46:	fbe080e7          	jalr	-66(ra) # 0 <print>

  for(n=0; n<N; n++){
  4a:	4481                	li	s1,0
  4c:	3e800913          	li	s2,1000
    pid = fork();
  50:	00000097          	auipc	ra,0x0
  54:	33c080e7          	jalr	828(ra) # 38c <fork>
    if(pid < 0)
  58:	02054763          	bltz	a0,86 <forktest+0x58>
      break;
    if(pid == 0)
  5c:	c10d                	beqz	a0,7e <forktest+0x50>
  for(n=0; n<N; n++){
  5e:	2485                	addiw	s1,s1,1
  60:	ff2498e3          	bne	s1,s2,50 <forktest+0x22>
      exit(0);
  }

  if(n == N){
    print("fork claimed to work N times!\n");
  64:	00000517          	auipc	a0,0x0
  68:	55c50513          	addi	a0,a0,1372 # 5c0 <malloc+0xf4>
  6c:	00000097          	auipc	ra,0x0
  70:	f94080e7          	jalr	-108(ra) # 0 <print>
    exit(1);
  74:	4505                	li	a0,1
  76:	00000097          	auipc	ra,0x0
  7a:	31e080e7          	jalr	798(ra) # 394 <exit>
      exit(0);
  7e:	00000097          	auipc	ra,0x0
  82:	316080e7          	jalr	790(ra) # 394 <exit>
  if(n == N){
  86:	3e800793          	li	a5,1000
  8a:	fcf48de3          	beq	s1,a5,64 <forktest+0x36>
  }

  for(; n > 0; n--){
  8e:	00905b63          	blez	s1,a4 <forktest+0x76>
    if(wait(0) < 0){
  92:	4501                	li	a0,0
  94:	00000097          	auipc	ra,0x0
  98:	308080e7          	jalr	776(ra) # 39c <wait>
  9c:	02054a63          	bltz	a0,d0 <forktest+0xa2>
  for(; n > 0; n--){
  a0:	34fd                	addiw	s1,s1,-1
  a2:	f8e5                	bnez	s1,92 <forktest+0x64>
      print("wait stopped early\n");
      exit(1);
    }
  }

  if(wait(0) != -1){
  a4:	4501                	li	a0,0
  a6:	00000097          	auipc	ra,0x0
  aa:	2f6080e7          	jalr	758(ra) # 39c <wait>
  ae:	57fd                	li	a5,-1
  b0:	02f51d63          	bne	a0,a5,ea <forktest+0xbc>
    print("wait got too many\n");
    exit(1);
  }

  print("fork test OK\n");
  b4:	00000517          	auipc	a0,0x0
  b8:	55c50513          	addi	a0,a0,1372 # 610 <malloc+0x144>
  bc:	00000097          	auipc	ra,0x0
  c0:	f44080e7          	jalr	-188(ra) # 0 <print>
}
  c4:	60e2                	ld	ra,24(sp)
  c6:	6442                	ld	s0,16(sp)
  c8:	64a2                	ld	s1,8(sp)
  ca:	6902                	ld	s2,0(sp)
  cc:	6105                	addi	sp,sp,32
  ce:	8082                	ret
      print("wait stopped early\n");
  d0:	00000517          	auipc	a0,0x0
  d4:	51050513          	addi	a0,a0,1296 # 5e0 <malloc+0x114>
  d8:	00000097          	auipc	ra,0x0
  dc:	f28080e7          	jalr	-216(ra) # 0 <print>
      exit(1);
  e0:	4505                	li	a0,1
  e2:	00000097          	auipc	ra,0x0
  e6:	2b2080e7          	jalr	690(ra) # 394 <exit>
    print("wait got too many\n");
  ea:	00000517          	auipc	a0,0x0
  ee:	50e50513          	addi	a0,a0,1294 # 5f8 <malloc+0x12c>
  f2:	00000097          	auipc	ra,0x0
  f6:	f0e080e7          	jalr	-242(ra) # 0 <print>
    exit(1);
  fa:	4505                	li	a0,1
  fc:	00000097          	auipc	ra,0x0
 100:	298080e7          	jalr	664(ra) # 394 <exit>

0000000000000104 <main>:

int
main(void)
{
 104:	1141                	addi	sp,sp,-16
 106:	e406                	sd	ra,8(sp)
 108:	e022                	sd	s0,0(sp)
 10a:	0800                	addi	s0,sp,16
  forktest();
 10c:	00000097          	auipc	ra,0x0
 110:	f22080e7          	jalr	-222(ra) # 2e <forktest>
  exit(0);
 114:	4501                	li	a0,0
 116:	00000097          	auipc	ra,0x0
 11a:	27e080e7          	jalr	638(ra) # 394 <exit>

000000000000011e <strcpy>:
#include "kernel/fcntl.h"
#include "user/user.h"

char*
strcpy(char *s, const char *t)
{
 11e:	1141                	addi	sp,sp,-16
 120:	e422                	sd	s0,8(sp)
 122:	0800                	addi	s0,sp,16
  char *os;

  os = s;
  while((*s++ = *t++) != 0)
 124:	87aa                	mv	a5,a0
 126:	0585                	addi	a1,a1,1
 128:	0785                	addi	a5,a5,1
 12a:	fff5c703          	lbu	a4,-1(a1)
 12e:	fee78fa3          	sb	a4,-1(a5)
 132:	fb75                	bnez	a4,126 <strcpy+0x8>
    ;
  return os;
}
 134:	6422                	ld	s0,8(sp)
 136:	0141                	addi	sp,sp,16
 138:	8082                	ret

000000000000013a <strcmp>:

int
strcmp(const char *p, const char *q)
{
 13a:	1141                	addi	sp,sp,-16
 13c:	e422                	sd	s0,8(sp)
 13e:	0800                	addi	s0,sp,16
  while(*p && *p == *q)
 140:	00054783          	lbu	a5,0(a0)
 144:	cb91                	beqz	a5,158 <strcmp+0x1e>
 146:	0005c703          	lbu	a4,0(a1)
 14a:	00f71763          	bne	a4,a5,158 <strcmp+0x1e>
    p++, q++;
 14e:	0505                	addi	a0,a0,1
 150:	0585                	addi	a1,a1,1
  while(*p && *p == *q)
 152:	00054783          	lbu	a5,0(a0)
 156:	fbe5                	bnez	a5,146 <strcmp+0xc>
  return (uchar)*p - (uchar)*q;
 158:	0005c503          	lbu	a0,0(a1)
}
 15c:	40a7853b          	subw	a0,a5,a0
 160:	6422                	ld	s0,8(sp)
 162:	0141                	addi	sp,sp,16
 164:	8082                	ret

0000000000000166 <strlen>:

uint
strlen(const char *s)
{
 166:	1141                	addi	sp,sp,-16
 168:	e422                	sd	s0,8(sp)
 16a:	0800                	addi	s0,sp,16
  int n;

  for(n = 0; s[n]; n++)
 16c:	00054783          	lbu	a5,0(a0)
 170:	cf91                	beqz	a5,18c <strlen+0x26>
 172:	0505                	addi	a0,a0,1
 174:	87aa                	mv	a5,a0
 176:	4685                	li	a3,1
 178:	9e89                	subw	a3,a3,a0
 17a:	00f6853b          	addw	a0,a3,a5
 17e:	0785                	addi	a5,a5,1
 180:	fff7c703          	lbu	a4,-1(a5)
 184:	fb7d                	bnez	a4,17a <strlen+0x14>
    ;
  return n;
}
 186:	6422                	ld	s0,8(sp)
 188:	0141                	addi	sp,sp,16
 18a:	8082                	ret
  for(n = 0; s[n]; n++)
 18c:	4501                	li	a0,0
 18e:	bfe5                	j	186 <strlen+0x20>

0000000000000190 <memset>:

void*
memset(void *dst, int c, uint n)
{
 190:	1141                	addi	sp,sp,-16
 192:	e422                	sd	s0,8(sp)
 194:	0800                	addi	s0,sp,16
  char *cdst = (char *) dst;
  int i;
  for(i = 0; i < n; i++){
 196:	ce09                	beqz	a2,1b0 <memset+0x20>
 198:	87aa                	mv	a5,a0
 19a:	fff6071b          	addiw	a4,a2,-1
 19e:	1702                	slli	a4,a4,0x20
 1a0:	9301                	srli	a4,a4,0x20
 1a2:	0705                	addi	a4,a4,1
 1a4:	972a                	add	a4,a4,a0
    cdst[i] = c;
 1a6:	00b78023          	sb	a1,0(a5)
  for(i = 0; i < n; i++){
 1aa:	0785                	addi	a5,a5,1
 1ac:	fee79de3          	bne	a5,a4,1a6 <memset+0x16>
  }
  return dst;
}
 1b0:	6422                	ld	s0,8(sp)
 1b2:	0141                	addi	sp,sp,16
 1b4:	8082                	ret

00000000000001b6 <strchr>:

char*
strchr(const char *s, char c)
{
 1b6:	1141                	addi	sp,sp,-16
 1b8:	e422                	sd	s0,8(sp)
 1ba:	0800                	addi	s0,sp,16
  for(; *s; s++)
 1bc:	00054783          	lbu	a5,0(a0)
 1c0:	cb99                	beqz	a5,1d6 <strchr+0x20>
    if(*s == c)
 1c2:	00f58763          	beq	a1,a5,1d0 <strchr+0x1a>
  for(; *s; s++)
 1c6:	0505                	addi	a0,a0,1
 1c8:	00054783          	lbu	a5,0(a0)
 1cc:	fbfd                	bnez	a5,1c2 <strchr+0xc>
      return (char*)s;
  return 0;
 1ce:	4501                	li	a0,0
}
 1d0:	6422                	ld	s0,8(sp)
 1d2:	0141                	addi	sp,sp,16
 1d4:	8082                	ret
  return 0;
 1d6:	4501                	li	a0,0
 1d8:	bfe5                	j	1d0 <strchr+0x1a>

00000000000001da <gets>:

char*
gets(char *buf, int max)
{
 1da:	711d                	addi	sp,sp,-96
 1dc:	ec86                	sd	ra,88(sp)
 1de:	e8a2                	sd	s0,80(sp)
 1e0:	e4a6                	sd	s1,72(sp)
 1e2:	e0ca                	sd	s2,64(sp)
 1e4:	fc4e                	sd	s3,56(sp)
 1e6:	f852                	sd	s4,48(sp)
 1e8:	f456                	sd	s5,40(sp)
 1ea:	f05a                	sd	s6,32(sp)
 1ec:	ec5e                	sd	s7,24(sp)
 1ee:	1080                	addi	s0,sp,96
 1f0:	8baa                	mv	s7,a0
 1f2:	8a2e                	mv	s4,a1
  int i, cc;
  char c;

  for(i=0; i+1 < max; ){
 1f4:	892a                	mv	s2,a0
 1f6:	4481                	li	s1,0
    cc = read(0, &c, 1);
    if(cc < 1)
      break;
    buf[i++] = c;
    if(c == '\n' || c == '\r')
 1f8:	4aa9                	li	s5,10
 1fa:	4b35                	li	s6,13
  for(i=0; i+1 < max; ){
 1fc:	89a6                	mv	s3,s1
 1fe:	2485                	addiw	s1,s1,1
 200:	0344d863          	bge	s1,s4,230 <gets+0x56>
    cc = read(0, &c, 1);
 204:	4605                	li	a2,1
 206:	faf40593          	addi	a1,s0,-81
 20a:	4501                	li	a0,0
 20c:	00000097          	auipc	ra,0x0
 210:	1a0080e7          	jalr	416(ra) # 3ac <read>
    if(cc < 1)
 214:	00a05e63          	blez	a0,230 <gets+0x56>
    buf[i++] = c;
 218:	faf44783          	lbu	a5,-81(s0)
 21c:	00f90023          	sb	a5,0(s2)
    if(c == '\n' || c == '\r')
 220:	01578763          	beq	a5,s5,22e <gets+0x54>
 224:	0905                	addi	s2,s2,1
 226:	fd679be3          	bne	a5,s6,1fc <gets+0x22>
  for(i=0; i+1 < max; ){
 22a:	89a6                	mv	s3,s1
 22c:	a011                	j	230 <gets+0x56>
 22e:	89a6                	mv	s3,s1
      break;
  }
  buf[i] = '\0';
 230:	99de                	add	s3,s3,s7
 232:	00098023          	sb	zero,0(s3)
  return buf;
}
 236:	855e                	mv	a0,s7
 238:	60e6                	ld	ra,88(sp)
 23a:	6446                	ld	s0,80(sp)
 23c:	64a6                	ld	s1,72(sp)
 23e:	6906                	ld	s2,64(sp)
 240:	79e2                	ld	s3,56(sp)
 242:	7a42                	ld	s4,48(sp)
 244:	7aa2                	ld	s5,40(sp)
 246:	7b02                	ld	s6,32(sp)
 248:	6be2                	ld	s7,24(sp)
 24a:	6125                	addi	sp,sp,96
 24c:	8082                	ret

000000000000024e <stat>:

int
stat(const char *n, struct stat *st)
{
 24e:	1101                	addi	sp,sp,-32
 250:	ec06                	sd	ra,24(sp)
 252:	e822                	sd	s0,16(sp)
 254:	e426                	sd	s1,8(sp)
 256:	e04a                	sd	s2,0(sp)
 258:	1000                	addi	s0,sp,32
 25a:	892e                	mv	s2,a1
  int fd;
  int r;

  fd = open(n, O_RDONLY);
 25c:	4581                	li	a1,0
 25e:	00000097          	auipc	ra,0x0
 262:	176080e7          	jalr	374(ra) # 3d4 <open>
  if(fd < 0)
 266:	02054563          	bltz	a0,290 <stat+0x42>
 26a:	84aa                	mv	s1,a0
    return -1;
  r = fstat(fd, st);
 26c:	85ca                	mv	a1,s2
 26e:	00000097          	auipc	ra,0x0
 272:	17e080e7          	jalr	382(ra) # 3ec <fstat>
 276:	892a                	mv	s2,a0
  close(fd);
 278:	8526                	mv	a0,s1
 27a:	00000097          	auipc	ra,0x0
 27e:	142080e7          	jalr	322(ra) # 3bc <close>
  return r;
}
 282:	854a                	mv	a0,s2
 284:	60e2                	ld	ra,24(sp)
 286:	6442                	ld	s0,16(sp)
 288:	64a2                	ld	s1,8(sp)
 28a:	6902                	ld	s2,0(sp)
 28c:	6105                	addi	sp,sp,32
 28e:	8082                	ret
    return -1;
 290:	597d                	li	s2,-1
 292:	bfc5                	j	282 <stat+0x34>

0000000000000294 <atoi>:

int
atoi(const char *s)
{
 294:	1141                	addi	sp,sp,-16
 296:	e422                	sd	s0,8(sp)
 298:	0800                	addi	s0,sp,16
  int n;

  n = 0;
  while('0' <= *s && *s <= '9')
 29a:	00054603          	lbu	a2,0(a0)
 29e:	fd06079b          	addiw	a5,a2,-48
 2a2:	0ff7f793          	andi	a5,a5,255
 2a6:	4725                	li	a4,9
 2a8:	02f76963          	bltu	a4,a5,2da <atoi+0x46>
 2ac:	86aa                	mv	a3,a0
  n = 0;
 2ae:	4501                	li	a0,0
  while('0' <= *s && *s <= '9')
 2b0:	45a5                	li	a1,9
    n = n*10 + *s++ - '0';
 2b2:	0685                	addi	a3,a3,1
 2b4:	0025179b          	slliw	a5,a0,0x2
 2b8:	9fa9                	addw	a5,a5,a0
 2ba:	0017979b          	slliw	a5,a5,0x1
 2be:	9fb1                	addw	a5,a5,a2
 2c0:	fd07851b          	addiw	a0,a5,-48
  while('0' <= *s && *s <= '9')
 2c4:	0006c603          	lbu	a2,0(a3)
 2c8:	fd06071b          	addiw	a4,a2,-48
 2cc:	0ff77713          	andi	a4,a4,255
 2d0:	fee5f1e3          	bgeu	a1,a4,2b2 <atoi+0x1e>
  return n;
}
 2d4:	6422                	ld	s0,8(sp)
 2d6:	0141                	addi	sp,sp,16
 2d8:	8082                	ret
  n = 0;
 2da:	4501                	li	a0,0
 2dc:	bfe5                	j	2d4 <atoi+0x40>

00000000000002de <memmove>:

void*
memmove(void *vdst, const void *vsrc, int n)
{
 2de:	1141                	addi	sp,sp,-16
 2e0:	e422                	sd	s0,8(sp)
 2e2:	0800                	addi	s0,sp,16
  char *dst;
  const char *src;

  dst = vdst;
  src = vsrc;
  if (src > dst) {
 2e4:	02b57663          	bgeu	a0,a1,310 <memmove+0x32>
    while(n-- > 0)
 2e8:	02c05163          	blez	a2,30a <memmove+0x2c>
 2ec:	fff6079b          	addiw	a5,a2,-1
 2f0:	1782                	slli	a5,a5,0x20
 2f2:	9381                	srli	a5,a5,0x20
 2f4:	0785                	addi	a5,a5,1
 2f6:	97aa                	add	a5,a5,a0
  dst = vdst;
 2f8:	872a                	mv	a4,a0
      *dst++ = *src++;
 2fa:	0585                	addi	a1,a1,1
 2fc:	0705                	addi	a4,a4,1
 2fe:	fff5c683          	lbu	a3,-1(a1)
 302:	fed70fa3          	sb	a3,-1(a4)
    while(n-- > 0)
 306:	fee79ae3          	bne	a5,a4,2fa <memmove+0x1c>
    src += n;
    while(n-- > 0)
      *--dst = *--src;
  }
  return vdst;
}
 30a:	6422                	ld	s0,8(sp)
 30c:	0141                	addi	sp,sp,16
 30e:	8082                	ret
    dst += n;
 310:	00c50733          	add	a4,a0,a2
    src += n;
 314:	95b2                	add	a1,a1,a2
    while(n-- > 0)
 316:	fec05ae3          	blez	a2,30a <memmove+0x2c>
 31a:	fff6079b          	addiw	a5,a2,-1
 31e:	1782                	slli	a5,a5,0x20
 320:	9381                	srli	a5,a5,0x20
 322:	fff7c793          	not	a5,a5
 326:	97ba                	add	a5,a5,a4
      *--dst = *--src;
 328:	15fd                	addi	a1,a1,-1
 32a:	177d                	addi	a4,a4,-1
 32c:	0005c683          	lbu	a3,0(a1)
 330:	00d70023          	sb	a3,0(a4)
    while(n-- > 0)
 334:	fee79ae3          	bne	a5,a4,328 <memmove+0x4a>
 338:	bfc9                	j	30a <memmove+0x2c>

000000000000033a <memcmp>:

int
memcmp(const void *s1, const void *s2, uint n)
{
 33a:	1141                	addi	sp,sp,-16
 33c:	e422                	sd	s0,8(sp)
 33e:	0800                	addi	s0,sp,16
  const char *p1 = s1, *p2 = s2;
  while (n-- > 0) {
 340:	ca05                	beqz	a2,370 <memcmp+0x36>
 342:	fff6069b          	addiw	a3,a2,-1
 346:	1682                	slli	a3,a3,0x20
 348:	9281                	srli	a3,a3,0x20
 34a:	0685                	addi	a3,a3,1
 34c:	96aa                	add	a3,a3,a0
    if (*p1 != *p2) {
 34e:	00054783          	lbu	a5,0(a0)
 352:	0005c703          	lbu	a4,0(a1)
 356:	00e79863          	bne	a5,a4,366 <memcmp+0x2c>
      return *p1 - *p2;
    }
    p1++;
 35a:	0505                	addi	a0,a0,1
    p2++;
 35c:	0585                	addi	a1,a1,1
  while (n-- > 0) {
 35e:	fed518e3          	bne	a0,a3,34e <memcmp+0x14>
  }
  return 0;
 362:	4501                	li	a0,0
 364:	a019                	j	36a <memcmp+0x30>
      return *p1 - *p2;
 366:	40e7853b          	subw	a0,a5,a4
}
 36a:	6422                	ld	s0,8(sp)
 36c:	0141                	addi	sp,sp,16
 36e:	8082                	ret
  return 0;
 370:	4501                	li	a0,0
 372:	bfe5                	j	36a <memcmp+0x30>

0000000000000374 <memcpy>:

void *
memcpy(void *dst, const void *src, uint n)
{
 374:	1141                	addi	sp,sp,-16
 376:	e406                	sd	ra,8(sp)
 378:	e022                	sd	s0,0(sp)
 37a:	0800                	addi	s0,sp,16
  return memmove(dst, src, n);
 37c:	00000097          	auipc	ra,0x0
 380:	f62080e7          	jalr	-158(ra) # 2de <memmove>
}
 384:	60a2                	ld	ra,8(sp)
 386:	6402                	ld	s0,0(sp)
 388:	0141                	addi	sp,sp,16
 38a:	8082                	ret

000000000000038c <fork>:
# generated by usys.pl - do not edit
#include "kernel/syscall.h"
.global fork
fork:
 li a7, SYS_fork
 38c:	4885                	li	a7,1
 ecall
 38e:	00000073          	ecall
 ret
 392:	8082                	ret

0000000000000394 <exit>:
.global exit
exit:
 li a7, SYS_exit
 394:	4889                	li	a7,2
 ecall
 396:	00000073          	ecall
 ret
 39a:	8082                	ret

000000000000039c <wait>:
.global wait
wait:
 li a7, SYS_wait
 39c:	488d                	li	a7,3
 ecall
 39e:	00000073          	ecall
 ret
 3a2:	8082                	ret

00000000000003a4 <pipe>:
.global pipe
pipe:
 li a7, SYS_pipe
 3a4:	4891                	li	a7,4
 ecall
 3a6:	00000073          	ecall
 ret
 3aa:	8082                	ret

00000000000003ac <read>:
.global read
read:
 li a7, SYS_read
 3ac:	4895                	li	a7,5
 ecall
 3ae:	00000073          	ecall
 ret
 3b2:	8082                	ret

00000000000003b4 <write>:
.global write
write:
 li a7, SYS_write
 3b4:	48c1                	li	a7,16
 ecall
 3b6:	00000073          	ecall
 ret
 3ba:	8082                	ret

00000000000003bc <close>:
.global close
close:
 li a7, SYS_close
 3bc:	48d5                	li	a7,21
 ecall
 3be:	00000073          	ecall
 ret
 3c2:	8082                	ret

00000000000003c4 <kill>:
.global kill
kill:
 li a7, SYS_kill
 3c4:	4899                	li	a7,6
 ecall
 3c6:	00000073          	ecall
 ret
 3ca:	8082                	ret

00000000000003cc <exec>:
.global exec
exec:
 li a7, SYS_exec
 3cc:	489d                	li	a7,7
 ecall
 3ce:	00000073          	ecall
 ret
 3d2:	8082                	ret

00000000000003d4 <open>:
.global open
open:
 li a7, SYS_open
 3d4:	48bd                	li	a7,15
 ecall
 3d6:	00000073          	ecall
 ret
 3da:	8082                	ret

00000000000003dc <mknod>:
.global mknod
mknod:
 li a7, SYS_mknod
 3dc:	48c5                	li	a7,17
 ecall
 3de:	00000073          	ecall
 ret
 3e2:	8082                	ret

00000000000003e4 <unlink>:
.global unlink
unlink:
 li a7, SYS_unlink
 3e4:	48c9                	li	a7,18
 ecall
 3e6:	00000073          	ecall
 ret
 3ea:	8082                	ret

00000000000003ec <fstat>:
.global fstat
fstat:
 li a7, SYS_fstat
 3ec:	48a1                	li	a7,8
 ecall
 3ee:	00000073          	ecall
 ret
 3f2:	8082                	ret

00000000000003f4 <link>:
.global link
link:
 li a7, SYS_link
 3f4:	48cd                	li	a7,19
 ecall
 3f6:	00000073          	ecall
 ret
 3fa:	8082                	ret

00000000000003fc <mkdir>:
.global mkdir
mkdir:
 li a7, SYS_mkdir
 3fc:	48d1                	li	a7,20
 ecall
 3fe:	00000073          	ecall
 ret
 402:	8082                	ret

0000000000000404 <chdir>:
.global chdir
chdir:
 li a7, SYS_chdir
 404:	48a5                	li	a7,9
 ecall
 406:	00000073          	ecall
 ret
 40a:	8082                	ret

000000000000040c <dup>:
.global dup
dup:
 li a7, SYS_dup
 40c:	48a9                	li	a7,10
 ecall
 40e:	00000073          	ecall
 ret
 412:	8082                	ret

0000000000000414 <getpid>:
.global getpid
getpid:
 li a7, SYS_getpid
 414:	48ad                	li	a7,11
 ecall
 416:	00000073          	ecall
 ret
 41a:	8082                	ret

000000000000041c <sbrk>:
.global sbrk
sbrk:
 li a7, SYS_sbrk
 41c:	48b1                	li	a7,12
 ecall
 41e:	00000073          	ecall
 ret
 422:	8082                	ret

0000000000000424 <sleep>:
.global sleep
sleep:
 li a7, SYS_sleep
 424:	48b5                	li	a7,13
 ecall
 426:	00000073          	ecall
 ret
 42a:	8082                	ret

000000000000042c <uptime>:
.global uptime
uptime:
 li a7, SYS_uptime
 42c:	48b9                	li	a7,14
 ecall
 42e:	00000073          	ecall
 ret
 432:	8082                	ret

0000000000000434 <ntas>:
.global ntas
ntas:
 li a7, SYS_ntas
 434:	48d9                	li	a7,22
 ecall
 436:	00000073          	ecall
 ret
 43a:	8082                	ret

000000000000043c <nfree>:
.global nfree
nfree:
 li a7, SYS_nfree
 43c:	48dd                	li	a7,23
 ecall
 43e:	00000073          	ecall
 ret
 442:	8082                	ret

0000000000000444 <free>:
static Header base;
static Header *freep;

void
free(void *ap)
{
 444:	1141                	addi	sp,sp,-16
 446:	e422                	sd	s0,8(sp)
 448:	0800                	addi	s0,sp,16
  Header *bp, *p;

  bp = (Header*)ap - 1;
 44a:	ff050693          	addi	a3,a0,-16
  for(p = freep; !(bp > p && bp < p->s.ptr); p = p->s.ptr)
 44e:	00000797          	auipc	a5,0x0
 452:	1d27b783          	ld	a5,466(a5) # 620 <freep>
 456:	a805                	j	486 <free+0x42>
    if(p >= p->s.ptr && (bp > p || bp < p->s.ptr))
      break;
  if(bp + bp->s.size == p->s.ptr){
    bp->s.size += p->s.ptr->s.size;
 458:	4618                	lw	a4,8(a2)
 45a:	9db9                	addw	a1,a1,a4
 45c:	feb52c23          	sw	a1,-8(a0)
    bp->s.ptr = p->s.ptr->s.ptr;
 460:	6398                	ld	a4,0(a5)
 462:	6318                	ld	a4,0(a4)
 464:	fee53823          	sd	a4,-16(a0)
 468:	a091                	j	4ac <free+0x68>
  } else
    bp->s.ptr = p->s.ptr;
  if(p + p->s.size == bp){
    p->s.size += bp->s.size;
 46a:	ff852703          	lw	a4,-8(a0)
 46e:	9e39                	addw	a2,a2,a4
 470:	c790                	sw	a2,8(a5)
    p->s.ptr = bp->s.ptr;
 472:	ff053703          	ld	a4,-16(a0)
 476:	e398                	sd	a4,0(a5)
 478:	a099                	j	4be <free+0x7a>
    if(p >= p->s.ptr && (bp > p || bp < p->s.ptr))
 47a:	6398                	ld	a4,0(a5)
 47c:	00e7e463          	bltu	a5,a4,484 <free+0x40>
 480:	00e6ea63          	bltu	a3,a4,494 <free+0x50>
{
 484:	87ba                	mv	a5,a4
  for(p = freep; !(bp > p && bp < p->s.ptr); p = p->s.ptr)
 486:	fed7fae3          	bgeu	a5,a3,47a <free+0x36>
 48a:	6398                	ld	a4,0(a5)
 48c:	00e6e463          	bltu	a3,a4,494 <free+0x50>
    if(p >= p->s.ptr && (bp > p || bp < p->s.ptr))
 490:	fee7eae3          	bltu	a5,a4,484 <free+0x40>
  if(bp + bp->s.size == p->s.ptr){
 494:	ff852583          	lw	a1,-8(a0)
 498:	6390                	ld	a2,0(a5)
 49a:	02059713          	slli	a4,a1,0x20
 49e:	9301                	srli	a4,a4,0x20
 4a0:	0712                	slli	a4,a4,0x4
 4a2:	9736                	add	a4,a4,a3
 4a4:	fae60ae3          	beq	a2,a4,458 <free+0x14>
    bp->s.ptr = p->s.ptr;
 4a8:	fec53823          	sd	a2,-16(a0)
  if(p + p->s.size == bp){
 4ac:	4790                	lw	a2,8(a5)
 4ae:	02061713          	slli	a4,a2,0x20
 4b2:	9301                	srli	a4,a4,0x20
 4b4:	0712                	slli	a4,a4,0x4
 4b6:	973e                	add	a4,a4,a5
 4b8:	fae689e3          	beq	a3,a4,46a <free+0x26>
  } else
    p->s.ptr = bp;
 4bc:	e394                	sd	a3,0(a5)
  freep = p;
 4be:	00000717          	auipc	a4,0x0
 4c2:	16f73123          	sd	a5,354(a4) # 620 <freep>
}
 4c6:	6422                	ld	s0,8(sp)
 4c8:	0141                	addi	sp,sp,16
 4ca:	8082                	ret

00000000000004cc <malloc>:
  return freep;
}

void*
malloc(uint nbytes)
{
 4cc:	7139                	addi	sp,sp,-64
 4ce:	fc06                	sd	ra,56(sp)
 4d0:	f822                	sd	s0,48(sp)
 4d2:	f426                	sd	s1,40(sp)
 4d4:	f04a                	sd	s2,32(sp)
 4d6:	ec4e                	sd	s3,24(sp)
 4d8:	e852                	sd	s4,16(sp)
 4da:	e456                	sd	s5,8(sp)
 4dc:	e05a                	sd	s6,0(sp)
 4de:	0080                	addi	s0,sp,64
  Header *p, *prevp;
  uint nunits;

  nunits = (nbytes + sizeof(Header) - 1)/sizeof(Header) + 1;
 4e0:	02051493          	slli	s1,a0,0x20
 4e4:	9081                	srli	s1,s1,0x20
 4e6:	04bd                	addi	s1,s1,15
 4e8:	8091                	srli	s1,s1,0x4
 4ea:	0014899b          	addiw	s3,s1,1
 4ee:	0485                	addi	s1,s1,1
  if((prevp = freep) == 0){
 4f0:	00000517          	auipc	a0,0x0
 4f4:	13053503          	ld	a0,304(a0) # 620 <freep>
 4f8:	c515                	beqz	a0,524 <malloc+0x58>
    base.s.ptr = freep = prevp = &base;
    base.s.size = 0;
  }
  for(p = prevp->s.ptr; ; prevp = p, p = p->s.ptr){
 4fa:	611c                	ld	a5,0(a0)
    if(p->s.size >= nunits){
 4fc:	4798                	lw	a4,8(a5)
 4fe:	02977f63          	bgeu	a4,s1,53c <malloc+0x70>
 502:	8a4e                	mv	s4,s3
 504:	0009871b          	sext.w	a4,s3
 508:	6685                	lui	a3,0x1
 50a:	00d77363          	bgeu	a4,a3,510 <malloc+0x44>
 50e:	6a05                	lui	s4,0x1
 510:	000a0b1b          	sext.w	s6,s4
  p = sbrk(nu * sizeof(Header));
 514:	004a1a1b          	slliw	s4,s4,0x4
        p->s.size = nunits;
      }
      freep = prevp;
      return (void*)(p + 1);
    }
    if(p == freep)
 518:	00000917          	auipc	s2,0x0
 51c:	10890913          	addi	s2,s2,264 # 620 <freep>
  if(p == (char*)-1)
 520:	5afd                	li	s5,-1
 522:	a88d                	j	594 <malloc+0xc8>
    base.s.ptr = freep = prevp = &base;
 524:	00000797          	auipc	a5,0x0
 528:	10478793          	addi	a5,a5,260 # 628 <base>
 52c:	00000717          	auipc	a4,0x0
 530:	0ef73a23          	sd	a5,244(a4) # 620 <freep>
 534:	e39c                	sd	a5,0(a5)
    base.s.size = 0;
 536:	0007a423          	sw	zero,8(a5)
    if(p->s.size >= nunits){
 53a:	b7e1                	j	502 <malloc+0x36>
      if(p->s.size == nunits)
 53c:	02e48b63          	beq	s1,a4,572 <malloc+0xa6>
        p->s.size -= nunits;
 540:	4137073b          	subw	a4,a4,s3
 544:	c798                	sw	a4,8(a5)
        p += p->s.size;
 546:	1702                	slli	a4,a4,0x20
 548:	9301                	srli	a4,a4,0x20
 54a:	0712                	slli	a4,a4,0x4
 54c:	97ba                	add	a5,a5,a4
        p->s.size = nunits;
 54e:	0137a423          	sw	s3,8(a5)
      freep = prevp;
 552:	00000717          	auipc	a4,0x0
 556:	0ca73723          	sd	a0,206(a4) # 620 <freep>
      return (void*)(p + 1);
 55a:	01078513          	addi	a0,a5,16
      if((p = morecore(nunits)) == 0)
        return 0;
  }
}
 55e:	70e2                	ld	ra,56(sp)
 560:	7442                	ld	s0,48(sp)
 562:	74a2                	ld	s1,40(sp)
 564:	7902                	ld	s2,32(sp)
 566:	69e2                	ld	s3,24(sp)
 568:	6a42                	ld	s4,16(sp)
 56a:	6aa2                	ld	s5,8(sp)
 56c:	6b02                	ld	s6,0(sp)
 56e:	6121                	addi	sp,sp,64
 570:	8082                	ret
        prevp->s.ptr = p->s.ptr;
 572:	6398                	ld	a4,0(a5)
 574:	e118                	sd	a4,0(a0)
 576:	bff1                	j	552 <malloc+0x86>
  hp->s.size = nu;
 578:	01652423          	sw	s6,8(a0)
  free((void*)(hp + 1));
 57c:	0541                	addi	a0,a0,16
 57e:	00000097          	auipc	ra,0x0
 582:	ec6080e7          	jalr	-314(ra) # 444 <free>
  return freep;
 586:	00093503          	ld	a0,0(s2)
      if((p = morecore(nunits)) == 0)
 58a:	d971                	beqz	a0,55e <malloc+0x92>
  for(p = prevp->s.ptr; ; prevp = p, p = p->s.ptr){
 58c:	611c                	ld	a5,0(a0)
    if(p->s.size >= nunits){
 58e:	4798                	lw	a4,8(a5)
 590:	fa9776e3          	bgeu	a4,s1,53c <malloc+0x70>
    if(p == freep)
 594:	00093703          	ld	a4,0(s2)
 598:	853e                	mv	a0,a5
 59a:	fef719e3          	bne	a4,a5,58c <malloc+0xc0>
  p = sbrk(nu * sizeof(Header));
 59e:	8552                	mv	a0,s4
 5a0:	00000097          	auipc	ra,0x0
 5a4:	e7c080e7          	jalr	-388(ra) # 41c <sbrk>
  if(p == (char*)-1)
 5a8:	fd5518e3          	bne	a0,s5,578 <malloc+0xac>
        return 0;
 5ac:	4501                	li	a0,0
 5ae:	bf45                	j	55e <malloc+0x92>
